target datalayout = "e-m:e-p270:32:32-p271:32:32-p272:64:64-i64:64-i128:128-f80:128-n8:16:32:64-S128"
target triple = "x86_64-pc-linux-gnu"

%"class.std::vector" = type { %"struct.std::_Vector_base" }
%"struct.std::_Vector_base" = type { %"struct.std::_Vector_base<std::__cxx11::basic_string<char>, std::allocator<std::__cxx11::basic_string<char>>>::_Vector_impl" }
%"struct.std::_Vector_base<std::__cxx11::basic_string<char>, std::allocator<std::__cxx11::basic_string<char>>>::_Vector_impl" = type { %"struct.std::_Vector_base<std::__cxx11::basic_string<char>, std::allocator<std::__cxx11::basic_string<char>>>::_Vector_impl_data" }
%"struct.std::_Vector_base<std::__cxx11::basic_string<char>, std::allocator<std::__cxx11::basic_string<char>>>::_Vector_impl_data" = type { ptr, ptr, ptr }
%"class.std::__cxx11::basic_string" = type { %"struct.std::__cxx11::basic_string<char>::_Alloc_hider", i64, %union.anon }
%"struct.std::__cxx11::basic_string<char>::_Alloc_hider" = type { ptr }
%union.anon = type { i64, [8 x i8] }
%"class.std::map" = type { %"class.std::_Rb_tree" }
%"class.std::_Rb_tree" = type { %"struct.std::_Rb_tree<std::__cxx11::basic_string<char>, std::pair<const std::__cxx11::basic_string<char>, casadi::GenericType>, std::_Select1st<std::pair<const std::__cxx11::basic_string<char>, casadi::GenericType>>, std::less<std::__cxx11::basic_string<char>>>::_Rb_tree_impl" }
%"struct.std::_Rb_tree<std::__cxx11::basic_string<char>, std::pair<const std::__cxx11::basic_string<char>, casadi::GenericType>, std::_Select1st<std::pair<const std::__cxx11::basic_string<char>, casadi::GenericType>>, std::less<std::__cxx11::basic_string<char>>>::_Rb_tree_impl" = type { [8 x i8], %"struct.std::_Rb_tree_header" }
%"struct.std::_Rb_tree_header" = type { %"struct.std::_Rb_tree_node_base", i64 }
%"struct.std::_Rb_tree_node_base" = type { i32, ptr, ptr, ptr }
%"class.casadi::Function" = type { %"class.casadi::SharedObject" }
%"class.casadi::SharedObject" = type { %"class.casadi::GenericShared" }
%"class.casadi::GenericShared" = type { ptr }
%"class.casadi::FunctionInternal" = type { %"class.casadi::ProtoFunction", i8, i8, i64, i64, %"class.std::vector.37", %"class.std::vector.37", %"class.std::vector.41", %"class.std::vector.41", %"class.std::vector", %"class.std::vector", i8, i8, %"class.std::__cxx11::basic_string", %"class.std::__cxx11::basic_string", %"class.std::__cxx11::basic_string", i8, ptr, ptr, ptr, %"class.std::map", i8, %"class.std::map", %"class.casadi::WeakCache", [2 x %"class.std::vector.41"], %"class.casadi::Function", ptr, %"class.std::__cxx11::basic_string", %"class.casadi::Importer", %"class.std::map", double, i8, i8, i8, i8, i8, i8, i8, i8, double, double, i64, i8, %"class.std::map", double, %"class.std::__cxx11::basic_string", i8, i8, i64, i8, i8, i8, %"class.std::__cxx11::basic_string", %"class.std::__cxx11::basic_string", %"class.std::map", %"class.std::map", %"class.std::map", %"class.std::map", %"class.casadi::Function", i64, i64, i64, i64, i64, i64, i64, i64, i64 }
%"class.casadi::ProtoFunction" = type { %"class.casadi::SharedObjectInternal", %"class.std::__cxx11::basic_string", i8, i8, i8, i8, i8, %"class.std::vector.29", %"class.std::stack" }
%"class.casadi::SharedObjectInternal" = type { %"class.casadi::GenericSharedInternal", i64 }
%"class.casadi::GenericSharedInternal" = type { ptr, ptr }
%"class.std::vector.29" = type { %"struct.std::_Vector_base.30" }
%"struct.std::_Vector_base.30" = type { %"struct.std::_Vector_base<void *, std::allocator<void *>>::_Vector_impl" }
%"struct.std::_Vector_base<void *, std::allocator<void *>>::_Vector_impl" = type { %"struct.std::_Vector_base<void *, std::allocator<void *>>::_Vector_impl_data" }
%"struct.std::_Vector_base<void *, std::allocator<void *>>::_Vector_impl_data" = type { ptr, ptr, ptr }
%"class.std::stack" = type { %"class.std::deque" }
%"class.std::deque" = type { %"class.std::_Deque_base" }
%"class.std::_Deque_base" = type { %"struct.std::_Deque_base<int, std::allocator<int>>::_Deque_impl" }
%"struct.std::_Deque_base<int, std::allocator<int>>::_Deque_impl" = type { %"struct.std::_Deque_base<int, std::allocator<int>>::_Deque_impl_data" }
%"struct.std::_Deque_base<int, std::allocator<int>>::_Deque_impl_data" = type { ptr, i64, %"struct.std::_Deque_iterator", %"struct.std::_Deque_iterator" }
%"struct.std::_Deque_iterator" = type { ptr, ptr, ptr, ptr }
%"class.std::vector.37" = type { %"struct.std::_Bvector_base" }
%"struct.std::_Bvector_base" = type { %"struct.std::_Bvector_base<std::allocator<bool>>::_Bvector_impl" }
%"struct.std::_Bvector_base<std::allocator<bool>>::_Bvector_impl" = type { %"struct.std::_Bvector_base<std::allocator<bool>>::_Bvector_impl_data" }
%"struct.std::_Bvector_base<std::allocator<bool>>::_Bvector_impl_data" = type { %"struct.std::_Bit_iterator", %"struct.std::_Bit_iterator", ptr }
%"struct.std::_Bit_iterator" = type { %"struct.std::_Bit_iterator_base.base", [4 x i8] }
%"struct.std::_Bit_iterator_base.base" = type <{ ptr, i32 }>
%"class.std::vector.41" = type { %"struct.std::_Vector_base.42" }
%"struct.std::_Vector_base.42" = type { %"struct.std::_Vector_base<casadi::Sparsity, std::allocator<casadi::Sparsity>>::_Vector_impl" }
%"struct.std::_Vector_base<casadi::Sparsity, std::allocator<casadi::Sparsity>>::_Vector_impl" = type { %"struct.std::_Vector_base<casadi::Sparsity, std::allocator<casadi::Sparsity>>::_Vector_impl_data" }
%"struct.std::_Vector_base<casadi::Sparsity, std::allocator<casadi::Sparsity>>::_Vector_impl_data" = type { ptr, ptr, ptr }
%"class.casadi::WeakCache" = type { %"class.std::unordered_map" }
%"class.std::unordered_map" = type { %"class.std::_Hashtable" }
%"class.std::_Hashtable" = type { ptr, i64, %"struct.std::__detail::_Hash_node_base", i64, %"struct.std::__detail::_Prime_rehash_policy", ptr }
%"struct.std::__detail::_Hash_node_base" = type { ptr }
%"struct.std::__detail::_Prime_rehash_policy" = type { float, i64 }
%"class.casadi::Importer" = type { %"class.casadi::SharedObject" }
%"class.std::vector.62" = type { %"struct.std::_Vector_base.63" }
%"struct.std::_Vector_base.63" = type { %"struct.std::_Vector_base<double, std::allocator<double>>::_Vector_impl" }
%"struct.std::_Vector_base<double, std::allocator<double>>::_Vector_impl" = type { %"struct.std::_Vector_base<double, std::allocator<double>>::_Vector_impl_data" }
%"struct.std::_Vector_base<double, std::allocator<double>>::_Vector_impl_data" = type { ptr, ptr, ptr }
%"class.std::vector.99" = type { %"struct.std::_Vector_base.100" }
%"struct.std::_Vector_base.100" = type { %"struct.std::_Vector_base<const double *, std::allocator<const double *>>::_Vector_impl" }
%"struct.std::_Vector_base<const double *, std::allocator<const double *>>::_Vector_impl" = type { %"struct.std::_Vector_base<const double *, std::allocator<const double *>>::_Vector_impl_data" }
%"struct.std::_Vector_base<const double *, std::allocator<const double *>>::_Vector_impl_data" = type { ptr, ptr, ptr }
%"class.std::vector.110" = type { %"struct.std::_Vector_base.111" }
%"struct.std::_Vector_base.111" = type { %"struct.std::_Vector_base<double *, std::allocator<double *>>::_Vector_impl" }
%"struct.std::_Vector_base<double *, std::allocator<double *>>::_Vector_impl" = type { %"struct.std::_Vector_base<double *, std::allocator<double *>>::_Vector_impl_data" }
%"struct.std::_Vector_base<double *, std::allocator<double *>>::_Vector_impl_data" = type { ptr, ptr, ptr }
%"class.std::vector.89" = type { %"struct.std::_Vector_base.90" }
%"struct.std::_Vector_base.90" = type { %"struct.std::_Vector_base<long long, std::allocator<long long>>::_Vector_impl" }
%"struct.std::_Vector_base<long long, std::allocator<long long>>::_Vector_impl" = type { %"struct.std::_Vector_base<long long, std::allocator<long long>>::_Vector_impl_data" }
%"struct.std::_Vector_base<long long, std::allocator<long long>>::_Vector_impl_data" = type { ptr, ptr, ptr }
%"class.casadi::FunctionBuffer" = type <{ %"class.casadi::Function", %"class.std::vector.62", %"class.std::vector.89", %"class.std::vector.99", %"class.std::vector.110", ptr, i64, ptr, i32, [4 x i8] }>

; Function Attrs: inlinehint mustprogress uwtable
define linkonce_odr hidden noundef nonnull align 8 dereferenceable(8) ptr @_ZN6casadi12SharedObjectaSERKS0_(ptr noundef nonnull align 8 dereferenceable(8) %0, ptr noundef nonnull align 8 dereferenceable(8) %1) #7 comdat align 2 {
  %3 = alloca ptr, align 8
  %4 = alloca ptr, align 8
  store ptr %0, ptr %3, align 8, !tbaa !25
  store ptr %1, ptr %4, align 8, !tbaa !25
  %5 = load ptr, ptr %3, align 8
  %6 = load ptr, ptr %4, align 8, !tbaa !25
  %7 = call noundef nonnull align 8 dereferenceable(8) ptr @_ZN6casadi13GenericSharedINS_12SharedObjectENS_20SharedObjectInternalEEaSERKS3_(ptr noundef nonnull align 8 dereferenceable(8) %5, ptr noundef nonnull align 8 dereferenceable(8) %6)
  ret ptr %5
}

; Function Attrs: mustprogress uwtable
define noundef ptr @_ZNK6casadi8Function6memoryEi(ptr noundef nonnull align 8 dereferenceable(8) %0, i32 noundef %1) #6 align 2 {
  %3 = alloca ptr, align 8
  %4 = alloca i32, align 4
  store ptr %0, ptr %3, align 8, !tbaa !23
  store i32 %1, ptr %4, align 4, !tbaa !36
  %5 = load ptr, ptr %3, align 8
  %6 = call noundef ptr @_ZNK6casadi8FunctionptEv(ptr noundef nonnull align 8 dereferenceable(8) %5)
  %7 = load i32, ptr %4, align 4, !tbaa !36
  %8 = call noundef ptr @_ZNK6casadi13ProtoFunction6memoryEi(ptr noundef nonnull align 8 dereferenceable(168) %6, i32 noundef %7)
  ret ptr %8
}

; Function Attrs: mustprogress uwtable
define noundef i64 @_ZNK6casadi8Function8checkoutEv(ptr noundef nonnull align 8 dereferenceable(8) %0) #6 align 2 {
  %2 = alloca ptr, align 8
  store ptr %0, ptr %2, align 8, !tbaa !23
  %3 = load ptr, ptr %2, align 8
  %4 = call noundef ptr @_ZNK6casadi8FunctionptEv(ptr noundef nonnull align 8 dereferenceable(8) %3)
  %5 = call noundef i32 @_ZNK6casadi13ProtoFunction8checkoutEv(ptr noundef nonnull align 8 dereferenceable(168) %4)
  %6 = sext i32 %5 to i64
  ret i64 %6
}

; Function Attrs: inlinehint mustprogress uwtable
define linkonce_odr hidden noundef nonnull align 8 dereferenceable(8) ptr @_ZN6casadi8FunctionaSERKS0_(ptr noundef nonnull align 8 dereferenceable(8) %0, ptr noundef nonnull align 8 dereferenceable(8) %1) #7 comdat align 2 {
  %3 = alloca ptr, align 8
  %4 = alloca ptr, align 8
  store ptr %0, ptr %3, align 8, !tbaa !23
  store ptr %1, ptr %4, align 8, !tbaa !23
  %5 = load ptr, ptr %3, align 8
  %6 = load ptr, ptr %4, align 8, !tbaa !23
  %7 = call noundef nonnull align 8 dereferenceable(8) ptr @_ZN6casadi12SharedObjectaSERKS0_(ptr noundef nonnull align 8 dereferenceable(8) %5, ptr noundef nonnull align 8 dereferenceable(8) %6)
  ret ptr %5
}

; Function Attrs: mustprogress uwtable
define noundef nonnull align 8 dereferenceable(132) ptr @_ZN6casadi14FunctionBufferaSERKS0_(ptr noundef nonnull align 8 dereferenceable(132) %0, ptr noundef nonnull align 8 dereferenceable(132) %1) #6 align 2 {
  %3 = alloca ptr, align 8
  %4 = alloca ptr, align 8
  store ptr %0, ptr %3, align 8, !tbaa !496
  store ptr %1, ptr %4, align 8, !tbaa !496
  %5 = load ptr, ptr %3, align 8
  %6 = load ptr, ptr %4, align 8, !tbaa !496
  %7 = getelementptr inbounds nuw %"class.casadi::FunctionBuffer", ptr %6, i32 0, i32 0
  %8 = getelementptr inbounds nuw %"class.casadi::FunctionBuffer", ptr %5, i32 0, i32 0
  %9 = call noundef nonnull align 8 dereferenceable(8) ptr @_ZN6casadi8FunctionaSERKS0_(ptr noundef nonnull align 8 dereferenceable(8) %8, ptr noundef nonnull align 8 dereferenceable(8) %7)
  %10 = load ptr, ptr %4, align 8, !tbaa !496
  %11 = getelementptr inbounds nuw %"class.casadi::FunctionBuffer", ptr %10, i32 0, i32 1
  %12 = getelementptr inbounds nuw %"class.casadi::FunctionBuffer", ptr %5, i32 0, i32 1
  %13 = call noundef nonnull align 8 dereferenceable(24) ptr @_ZNSt6vectorIdSaIdEEaSERKS1_(ptr noundef nonnull align 8 dereferenceable(24) %12, ptr noundef nonnull align 8 dereferenceable(24) %11)
  %14 = load ptr, ptr %4, align 8, !tbaa !496
  %15 = getelementptr inbounds nuw %"class.casadi::FunctionBuffer", ptr %14, i32 0, i32 2
  %16 = getelementptr inbounds nuw %"class.casadi::FunctionBuffer", ptr %5, i32 0, i32 2
  %17 = call noundef nonnull align 8 dereferenceable(24) ptr @_ZNSt6vectorIxSaIxEEaSERKS1_(ptr noundef nonnull align 8 dereferenceable(24) %16, ptr noundef nonnull align 8 dereferenceable(24) %15)
  %18 = load ptr, ptr %4, align 8, !tbaa !496
  %19 = getelementptr inbounds nuw %"class.casadi::FunctionBuffer", ptr %18, i32 0, i32 3
  %20 = getelementptr inbounds nuw %"class.casadi::FunctionBuffer", ptr %5, i32 0, i32 3
  %21 = call noundef nonnull align 8 dereferenceable(24) ptr @_ZNSt6vectorIPKdSaIS1_EEaSERKS3_(ptr noundef nonnull align 8 dereferenceable(24) %20, ptr noundef nonnull align 8 dereferenceable(24) %19)
  %22 = load ptr, ptr %4, align 8, !tbaa !496
  %23 = getelementptr inbounds nuw %"class.casadi::FunctionBuffer", ptr %22, i32 0, i32 4
  %24 = getelementptr inbounds nuw %"class.casadi::FunctionBuffer", ptr %5, i32 0, i32 4
  %25 = call noundef nonnull align 8 dereferenceable(24) ptr @_ZNSt6vectorIPdSaIS0_EEaSERKS2_(ptr noundef nonnull align 8 dereferenceable(24) %24, ptr noundef nonnull align 8 dereferenceable(24) %23)
  %26 = load ptr, ptr %4, align 8, !tbaa !496
  %27 = getelementptr inbounds nuw %"class.casadi::FunctionBuffer", ptr %26, i32 0, i32 5
  %28 = load ptr, ptr %27, align 8, !tbaa !513
  %29 = getelementptr inbounds nuw %"class.casadi::FunctionBuffer", ptr %5, i32 0, i32 5
  store ptr %28, ptr %29, align 8, !tbaa !513
  %30 = getelementptr inbounds nuw %"class.casadi::FunctionBuffer", ptr %5, i32 0, i32 0
  %31 = call noundef ptr @_ZNK6casadi8FunctionptEv(ptr noundef nonnull align 8 dereferenceable(8) %30)
  %32 = getelementptr inbounds nuw %"class.casadi::FunctionInternal", ptr %31, i32 0, i32 18
  %33 = load ptr, ptr %32, align 8, !tbaa !515
  %34 = icmp ne ptr %33, null
  br i1 %34, label %35, label %43

35:                                               ; preds = %2
  %36 = getelementptr inbounds nuw %"class.casadi::FunctionBuffer", ptr %5, i32 0, i32 0
  %37 = call noundef ptr @_ZNK6casadi8FunctionptEv(ptr noundef nonnull align 8 dereferenceable(8) %36)
  %38 = getelementptr inbounds nuw %"class.casadi::FunctionInternal", ptr %37, i32 0, i32 18
  %39 = load ptr, ptr %38, align 8, !tbaa !515
  %40 = call noundef i32 %39()
  %41 = sext i32 %40 to i64
  %42 = getelementptr inbounds nuw %"class.casadi::FunctionBuffer", ptr %5, i32 0, i32 6
  store i64 %41, ptr %42, align 8, !tbaa !498
  br label %53

43:                                               ; preds = %2
  %44 = getelementptr inbounds nuw %"class.casadi::FunctionBuffer", ptr %5, i32 0, i32 0
  %45 = call noundef i64 @_ZNK6casadi8Function8checkoutEv(ptr noundef nonnull align 8 dereferenceable(8) %44)
  %46 = getelementptr inbounds nuw %"class.casadi::FunctionBuffer", ptr %5, i32 0, i32 6
  store i64 %45, ptr %46, align 8, !tbaa !498
  %47 = getelementptr inbounds nuw %"class.casadi::FunctionBuffer", ptr %5, i32 0, i32 0
  %48 = getelementptr inbounds nuw %"class.casadi::FunctionBuffer", ptr %5, i32 0, i32 6
  %49 = load i64, ptr %48, align 8, !tbaa !498
  %50 = trunc i64 %49 to i32
  %51 = call noundef ptr @_ZNK6casadi8Function6memoryEi(ptr noundef nonnull align 8 dereferenceable(8) %47, i32 noundef %50)
  %52 = getelementptr inbounds nuw %"class.casadi::FunctionBuffer", ptr %5, i32 0, i32 7
  store ptr %51, ptr %52, align 8, !tbaa !512
  br label %53

53:                                               ; preds = %43, %35
  ret ptr %5
}