; Function Attrs: mustprogress uwtable
define noundef nonnull align 8 dereferenceable(132) ptr @_ZN6casadi14FunctionBufferaSERKS0_(ptr noundef nonnull returned align 8 dereferenceable(132) %0, ptr noundef nonnull align 8 dereferenceable(132) %1) local_unnamed_addr #4 align 2 {
  %3 = tail call noundef nonnull align 8 dereferenceable(8) ptr @_ZN6casadi13GenericSharedINS_12SharedObjectENS_20SharedObjectInternalEEaSERKS3_(ptr noundef nonnull align 8 dereferenceable(8) %0, ptr noundef nonnull align 8 dereferenceable(8) %1)
  %4 = getelementptr inbounds nuw i8, ptr %1, i64 8
  %5 = getelementptr inbounds nuw i8, ptr %0, i64 8
  %6 = tail call noundef nonnull align 8 dereferenceable(24) ptr @_ZNSt6vectorIdSaIdEEaSERKS1_(ptr noundef nonnull align 8 dereferenceable(24) %5, ptr noundef nonnull align 8 dereferenceable(24) %4)
  %7 = getelementptr inbounds nuw i8, ptr %1, i64 32
  %8 = getelementptr inbounds nuw i8, ptr %0, i64 32
  %9 = tail call noundef nonnull align 8 dereferenceable(24) ptr @_ZNSt6vectorIxSaIxEEaSERKS1_(ptr noundef nonnull align 8 dereferenceable(24) %8, ptr noundef nonnull align 8 dereferenceable(24) %7)
  %10 = getelementptr inbounds nuw i8, ptr %1, i64 56
  %11 = getelementptr inbounds nuw i8, ptr %0, i64 56
  %12 = tail call noundef nonnull align 8 dereferenceable(24) ptr @_ZNSt6vectorIPKdSaIS1_EEaSERKS3_(ptr noundef nonnull align 8 dereferenceable(24) %11, ptr noundef nonnull align 8 dereferenceable(24) %10)
  %13 = getelementptr inbounds nuw i8, ptr %1, i64 80
  %14 = getelementptr inbounds nuw i8, ptr %0, i64 80
  %15 = tail call noundef nonnull align 8 dereferenceable(24) ptr @_ZNSt6vectorIPdSaIS0_EEaSERKS2_(ptr noundef nonnull align 8 dereferenceable(24) %14, ptr noundef nonnull align 8 dereferenceable(24) %13)
  %16 = getelementptr inbounds nuw i8, ptr %1, i64 104
  %17 = load ptr, ptr %16, align 8, !tbaa !800
  %18 = getelementptr inbounds nuw i8, ptr %0, i64 104
  store ptr %17, ptr %18, align 8, !tbaa !800
  %19 = tail call noundef ptr @_ZNK6casadi8FunctionptEv(ptr noundef nonnull align 8 dereferenceable(8) %0)
  %20 = getelementptr inbounds nuw i8, ptr %19, i64 488
  %21 = load ptr, ptr %20, align 8, !tbaa !802
  %.not = icmp eq ptr %21, null
  %22 = tail call noundef ptr @_ZNK6casadi8FunctionptEv(ptr noundef nonnull align 8 dereferenceable(8) %0)
  br i1 %.not, label %29, label %23

23:                                               ; preds = %2
  %24 = getelementptr inbounds nuw i8, ptr %22, i64 488
  %25 = load ptr, ptr %24, align 8, !tbaa !802
  %26 = tail call noundef i32 %25()
  %27 = sext i32 %26 to i64
  %28 = getelementptr inbounds nuw i8, ptr %0, i64 112
  store i64 %27, ptr %28, align 8, !tbaa !787
  br label %36

29:                                               ; preds = %2
  %30 = tail call noundef i32 @_ZNK6casadi13ProtoFunction8checkoutEv(ptr noundef nonnull align 8 dereferenceable(168) %22)
  %31 = sext i32 %30 to i64
  %32 = getelementptr inbounds nuw i8, ptr %0, i64 112
  store i64 %31, ptr %32, align 8, !tbaa !787
  %33 = tail call noundef ptr @_ZNK6casadi8FunctionptEv(ptr noundef nonnull align 8 dereferenceable(8) %0)
  %34 = tail call noundef ptr @_ZNK6casadi13ProtoFunction6memoryEi(ptr noundef nonnull align 8 dereferenceable(168) %33, i32 noundef %30)
  %35 = getelementptr inbounds nuw i8, ptr %0, i64 120
  store ptr %34, ptr %35, align 8, !tbaa !799
  br label %36

36:                                               ; preds = %29, %23
  ret ptr %0
}